target datalayout = "e-m:e-p270:32:32-p271:32:32-p272:64:64-i64:64-i128:128-f80:128-n8:16:32:64-S128"
target triple = "x86_64-pc-linux-gnu"

@proto_register_iscsi.ett = internal global [8 x ptr] [ptr @ett_iscsi, ptr @ett_iscsi_KeyValue, ptr @ett_iscsi_KeyValues, ptr @ett_iscsi_CDB, ptr @ett_iscsi_Flags, ptr @ett_iscsi_RejectHeader, ptr @ett_iscsi_lun, ptr @ett_iscsi_ISID], align 16
@.str.341 = private unnamed_addr constant [6 x i8] c"iSCSI\00", align 1
@.str.342 = private unnamed_addr constant [6 x i8] c"iscsi\00", align 1
@proto_iscsi = internal global i32 0, align 4
@iscsi_handle = internal global ptr null, align 8
@.str.343 = private unnamed_addr constant [17 x i8] c"protocol_version\00", align 1
@.str.344 = private unnamed_addr constant [17 x i8] c"Protocol version\00", align 1
@.str.345 = private unnamed_addr constant [27 x i8] c"The iSCSI protocol version\00", align 1
@iscsi_protocol_version = internal global i32 5, align 4
@.str.346 = private unnamed_addr constant [25 x i8] c"desegment_iscsi_messages\00", align 1
@.str.347 = private unnamed_addr constant [57 x i8] c"Reassemble iSCSI messages spanning multiple TCP segments\00", align 1
@.str.348 = private unnamed_addr constant [206 x i8] c"Whether the iSCSI dissector should reassemble messages spanning multiple TCP segments. To use this option, you must also enable \22Allow subdissectors to reassemble TCP streams\22 in the TCP protocol settings.\00", align 1
@iscsi_desegment = internal global i8 1, align 1
@.str.349 = private unnamed_addr constant [17 x i8] c"bogus_pdu_filter\00", align 1
@.str.350 = private unnamed_addr constant [24 x i8] c"Enable bogus pdu filter\00", align 1
@.str.351 = private unnamed_addr constant [52 x i8] c"When enabled, packets that appear bogus are ignored\00", align 1
@enable_bogosity_filter = internal global i8 1, align 1
@.str.352 = private unnamed_addr constant [18 x i8] c"demand_good_f_bit\00", align 1
@.str.353 = private unnamed_addr constant [30 x i8] c"Ignore packets with bad F bit\00", align 1
@.str.354 = private unnamed_addr constant [64 x i8] c"Ignore packets that haven't set the F bit when they should have\00", align 1
@demand_good_f_bit = internal global i8 0, align 1
@.str.355 = private unnamed_addr constant [23 x i8] c"bogus_pdu_max_data_len\00", align 1
@.str.356 = private unnamed_addr constant [36 x i8] c"Bogus pdu max data length threshold\00", align 1
@.str.357 = private unnamed_addr constant [76 x i8] c"Treat packets whose data segment length is greater than this value as bogus\00", align 1
@bogus_pdu_data_length_threshold = internal global i32 262144, align 4
@global_iscsi_port_range = internal global ptr null, align 8
@.str.358 = private unnamed_addr constant [5 x i8] c"3260\00", align 1
@.str.359 = private unnamed_addr constant [13 x i8] c"target_ports\00", align 1
@.str.360 = private unnamed_addr constant [19 x i8] c"Target Ports Range\00", align 1
@.str.361 = private unnamed_addr constant [42 x i8] c"Range of iSCSI target ports(default 3260)\00", align 1
@.str.362 = private unnamed_addr constant [19 x i8] c"target_system_port\00", align 1
@.str.363 = private unnamed_addr constant [19 x i8] c"Target system port\00", align 1
@.str.364 = private unnamed_addr constant [35 x i8] c"System port number of iSCSI target\00", align 1
@iscsi_system_port = internal global i32 860, align 4
@.str.365 = private unnamed_addr constant [22 x i8] c"version_03_compatible\00", align 1
@.str.366 = private unnamed_addr constant [29 x i8] c"bogus_pdu_max_digest_padding\00", align 1
@.str.367 = private unnamed_addr constant [24 x i8] c"header_digest_is_crc32c\00", align 1
@.str.368 = private unnamed_addr constant [19 x i8] c"header_digest_size\00", align 1
@.str.369 = private unnamed_addr constant [22 x i8] c"enable_header_digests\00", align 1
@.str.370 = private unnamed_addr constant [22 x i8] c"data_digest_is_crc32c\00", align 1
@.str.371 = private unnamed_addr constant [17 x i8] c"data_digest_size\00", align 1
@.str.372 = private unnamed_addr constant [20 x i8] c"enable_data_digests\00", align 1

; Function Attrs: null_pointer_is_valid sspstrong uwtable
define hidden void @proto_register_iscsi() #0 {
  %1 = alloca ptr, align 8
  %2 = alloca ptr, align 8
  call void @llvm.lifetime.start.p0(i64 8, ptr %1) #11
  call void @llvm.lifetime.start.p0(i64 8, ptr %2) #11
  %3 = call i32 @proto_register_protocol(ptr noundef @.str.341, ptr noundef @.str.341, ptr noundef @.str.342)
  store i32 %3, ptr @proto_iscsi, align 4
  %4 = load i32, ptr @proto_iscsi, align 4
  %5 = call ptr @register_dissector(ptr noundef @.str.342, ptr noundef @dissect_iscsi_handle, i32 noundef %4)
  store ptr %5, ptr @iscsi_handle, align 8
  %6 = load i32, ptr @proto_iscsi, align 4
  call void @proto_register_field_array(i32 noundef %6, ptr noundef @proto_register_iscsi.hf, i32 noundef 129)
  call void @proto_register_subtree_array(ptr noundef @proto_register_iscsi.ett, i32 noundef 8)
  %7 = load i32, ptr @proto_iscsi, align 4
  %8 = call ptr @prefs_register_protocol(i32 noundef %7, ptr noundef null)
  store ptr %8, ptr %1, align 8
  %9 = load ptr, ptr %1, align 8
  call void @prefs_register_enum_preference(ptr noundef %9, ptr noundef @.str.343, ptr noundef @.str.344, ptr noundef @.str.345, ptr noundef @iscsi_protocol_version, ptr noundef @iscsi_protocol_versions, i1 noundef zeroext false)
  %10 = load ptr, ptr %1, align 8
  call void @prefs_register_bool_preference(ptr noundef %10, ptr noundef @.str.346, ptr noundef @.str.347, ptr noundef @.str.348, ptr noundef @iscsi_desegment)
  %11 = load ptr, ptr %1, align 8
  call void @prefs_register_bool_preference(ptr noundef %11, ptr noundef @.str.349, ptr noundef @.str.350, ptr noundef @.str.351, ptr noundef @enable_bogosity_filter)
  %12 = load ptr, ptr %1, align 8
  call void @prefs_register_bool_preference(ptr noundef %12, ptr noundef @.str.352, ptr noundef @.str.353, ptr noundef @.str.354, ptr noundef @demand_good_f_bit)
  %13 = load ptr, ptr %1, align 8
  call void @prefs_register_uint_preference(ptr noundef %13, ptr noundef @.str.355, ptr noundef @.str.356, ptr noundef @.str.357, i32 noundef 10, ptr noundef @bogus_pdu_data_length_threshold)
  %14 = call ptr @wmem_epan_scope()
  %15 = call i32 @range_convert_str(ptr noundef %14, ptr noundef @global_iscsi_port_range, ptr noundef @.str.358, i32 noundef 65535)
  %16 = load ptr, ptr %1, align 8
  call void @prefs_register_range_preference(ptr noundef %16, ptr noundef @.str.359, ptr noundef @.str.360, ptr noundef @.str.361, ptr noundef @global_iscsi_port_range, i32 noundef 65535)
  %17 = load ptr, ptr %1, align 8
  call void @prefs_register_uint_preference(ptr noundef %17, ptr noundef @.str.362, ptr noundef @.str.363, ptr noundef @.str.364, i32 noundef 10, ptr noundef @iscsi_system_port)
  %18 = load ptr, ptr %1, align 8
  call void @prefs_register_obsolete_preference(ptr noundef %18, ptr noundef @.str.365)
  %19 = load ptr, ptr %1, align 8
  call void @prefs_register_obsolete_preference(ptr noundef %19, ptr noundef @.str.366)
  %20 = load ptr, ptr %1, align 8
  call void @prefs_register_obsolete_preference(ptr noundef %20, ptr noundef @.str.367)
  %21 = load ptr, ptr %1, align 8
  call void @prefs_register_obsolete_preference(ptr noundef %21, ptr noundef @.str.368)
  %22 = load ptr, ptr %1, align 8
  call void @prefs_register_obsolete_preference(ptr noundef %22, ptr noundef @.str.369)
  %23 = load ptr, ptr %1, align 8
  call void @prefs_register_obsolete_preference(ptr noundef %23, ptr noundef @.str.370)
  %24 = load ptr, ptr %1, align 8
  call void @prefs_register_obsolete_preference(ptr noundef %24, ptr noundef @.str.371)
  %25 = load ptr, ptr %1, align 8
  call void @prefs_register_obsolete_preference(ptr noundef %25, ptr noundef @.str.372)
  %26 = load i32, ptr @proto_iscsi, align 4
  %27 = call ptr @expert_register_protocol(i32 noundef %26)
  store ptr %27, ptr %2, align 8
  %28 = load ptr, ptr %2, align 8
  call void @expert_register_field_array(ptr noundef %28, ptr noundef @proto_register_iscsi.ei, i32 noundef 2)
  call void @llvm.lifetime.end.p0(i64 8, ptr %2) #11
  call void @llvm.lifetime.end.p0(i64 8, ptr %1) #11
  ret void
}