; Function Attrs: null_pointer_is_valid sspstrong uwtable
define hidden void @proto_register_iscsi() local_unnamed_addr #0 {
  %1 = tail call i32 @proto_register_protocol(ptr noundef nonnull @.str.341, ptr noundef nonnull @.str.341, ptr noundef nonnull @.str.342)
  store i32 %1, ptr @proto_iscsi, align 4
  %2 = tail call ptr @register_dissector(ptr noundef nonnull @.str.342, ptr noundef nonnull @dissect_iscsi_handle, i32 noundef %1)
  store ptr %2, ptr @iscsi_handle, align 8
  %3 = load i32, ptr @proto_iscsi, align 4
  tail call void @proto_register_field_array(i32 noundef %3, ptr noundef nonnull @proto_register_iscsi.hf, i32 noundef 129)
  tail call void @proto_register_subtree_array(ptr noundef nonnull @proto_register_iscsi.ett, i32 noundef 8)
  %4 = load i32, ptr @proto_iscsi, align 4
  %5 = tail call ptr @prefs_register_protocol(i32 noundef %4, ptr noundef null)
  tail call void @prefs_register_enum_preference(ptr noundef %5, ptr noundef nonnull @.str.343, ptr noundef nonnull @.str.344, ptr noundef nonnull @.str.345, ptr noundef nonnull @iscsi_protocol_version, ptr noundef nonnull @iscsi_protocol_versions, i1 noundef zeroext false)
  tail call void @prefs_register_bool_preference(ptr noundef %5, ptr noundef nonnull @.str.346, ptr noundef nonnull @.str.347, ptr noundef nonnull @.str.348, ptr noundef nonnull @iscsi_desegment)
  tail call void @prefs_register_bool_preference(ptr noundef %5, ptr noundef nonnull @.str.349, ptr noundef nonnull @.str.350, ptr noundef nonnull @.str.351, ptr noundef nonnull @enable_bogosity_filter)
  tail call void @prefs_register_bool_preference(ptr noundef %5, ptr noundef nonnull @.str.352, ptr noundef nonnull @.str.353, ptr noundef nonnull @.str.354, ptr noundef nonnull @demand_good_f_bit)
  tail call void @prefs_register_uint_preference(ptr noundef %5, ptr noundef nonnull @.str.355, ptr noundef nonnull @.str.356, ptr noundef nonnull @.str.357, i32 noundef 10, ptr noundef nonnull @bogus_pdu_data_length_threshold)
  %6 = tail call ptr @wmem_epan_scope()
  %7 = tail call i32 @range_convert_str(ptr noundef %6, ptr noundef nonnull @global_iscsi_port_range, ptr noundef nonnull @.str.358, i32 noundef 65535)
  tail call void @prefs_register_range_preference(ptr noundef %5, ptr noundef nonnull @.str.359, ptr noundef nonnull @.str.360, ptr noundef nonnull @.str.361, ptr noundef nonnull @global_iscsi_port_range, i32 noundef 65535)
  tail call void @prefs_register_uint_preference(ptr noundef %5, ptr noundef nonnull @.str.362, ptr noundef nonnull @.str.363, ptr noundef nonnull @.str.364, i32 noundef 10, ptr noundef nonnull @iscsi_system_port)
  tail call void @prefs_register_obsolete_preference(ptr noundef %5, ptr noundef nonnull @.str.365)
  tail call void @prefs_register_obsolete_preference(ptr noundef %5, ptr noundef nonnull @.str.366)
  tail call void @prefs_register_obsolete_preference(ptr noundef %5, ptr noundef nonnull @.str.367)
  tail call void @prefs_register_obsolete_preference(ptr noundef %5, ptr noundef nonnull @.str.368)
  tail call void @prefs_register_obsolete_preference(ptr noundef %5, ptr noundef nonnull @.str.369)
  tail call void @prefs_register_obsolete_preference(ptr noundef %5, ptr noundef nonnull @.str.370)
  tail call void @prefs_register_obsolete_preference(ptr noundef %5, ptr noundef nonnull @.str.371)
  tail call void @prefs_register_obsolete_preference(ptr noundef %5, ptr noundef nonnull @.str.372)
  %8 = load i32, ptr @proto_iscsi, align 4
  %9 = tail call ptr @expert_register_protocol(i32 noundef %8)
  tail call void @expert_register_field_array(ptr noundef %9, ptr noundef nonnull @proto_register_iscsi.ei, i32 noundef 2)
  ret void
}